target datalayout = "e-m:e-p270:32:32-p271:32:32-p272:64:64-i64:64-i128:128-f80:128-n8:16:32:64-S128"
target triple = "x86_64-pc-linux-gnu"

%class.OopHandle = type { ptr }
%class.constantPoolHandle = type { ptr, ptr }
%class.ciField = type { %class.ciFlags, ptr, ptr, ptr, ptr, i32, i8, ptr, ptr, %class.ciConstant }
%class.ciFlags = type <{ i32, i8, i8, [2 x i8] }>
%class.ciConstant = type { i8, %union.anon }
%union.anon = type { i64 }
%class.ciMetadata = type { %class.ciBaseObject.base, ptr }
%class.ciBaseObject.base = type <{ ptr, i32 }>
%class.ciInstanceKlass = type { %class.ciKlass.base, ptr, ptr, i8, i8, i8, i32, i8, i8, i8, i8, i8, [3 x i8], %class.ciFlags, ptr, ptr, ptr, ptr, i32, ptr, ptr }
%class.ciKlass.base = type <{ %class.ciType.base, [7 x i8], ptr, i32 }>
%class.ciType.base = type <{ %class.ciMetadata, i8 }>
%class.ciType = type <{ %class.ciMetadata, i8, [7 x i8] }>
%class.Thread = type { %class.ThreadShadow.base, i64, [43 x i64], ptr, ptr, i32, ptr, i64, i64, %class.ThreadLocalAllocBuffer, i64, %class.ThreadHeapSampler, %class.ThreadStatisticalInfo, %class.JfrThreadLocal, ptr, ptr, ptr, ptr, ptr, ptr, i64, i32, i32, ptr, i32, i32, i32, i32, i8, ptr }
%class.ThreadShadow.base = type <{ ptr, ptr, ptr, i32 }>
%class.ThreadLocalAllocBuffer = type <{ ptr, ptr, ptr, ptr, ptr, i64, i64, i64, i64, i32, i32, i32, i32, i64, %class.AdaptiveWeightedAverage, [4 x i8] }>
%class.AdaptiveWeightedAverage = type { float, i32, i32, i8, float }
%class.ThreadHeapSampler = type { i64 }
%class.ThreadStatisticalInfo = type { i64, i64 }
%class.JfrThreadLocal = type <{ ptr, ptr, ptr, ptr, ptr, ptr, ptr, ptr, ptr, ptr, %class.RefCountHandle, i64, i64, i64, i64, i64, i64, i64, i64, i64, i64, i64, i32, i32, i32, i16, i8, i8, i8, i8, i8, [5 x i8] }>
%class.RefCountHandle = type { ptr }
%class.CompilerThread = type { %class.JavaThread, ptr, ptr, ptr, ptr, ptr, ptr, i8, ptr, %class.TimeStamp, ptr }
%class.JavaThread = type { %class.Thread, i8, %class.OopHandle, %class.OopHandle, %class.OopHandle, %class.OopHandle, %class.JavaFrameAnchor, ptr, %struct.JNIEnv_, ptr, ptr, ptr, ptr, ptr, ptr, ptr, ptr, %class.MemRegion, ptr, i8, ptr, ptr, ptr, i32, i32, %"struct.SafepointMechanism::ThreadData", ptr, ptr, i32, i32, i8, i8, i8, i8, i8, i8, i8, i32, i8, i32, i8, i8, i64, %union.anon.1, ptr, ptr, i64, i64, ptr, ptr, %class.StackOverflow, ptr, ptr, ptr, i32, i32, ptr, i32, i32, i32, ptr, ptr, i32, i64, i64, %class.StackWatermarks, %class.HandshakeState, ptr, i32, ptr, i32, i32, ptr, %class.Parker, ptr, ptr, %class.LockStack }
%class.JavaFrameAnchor = type { ptr, ptr, ptr }
%struct.JNIEnv_ = type { ptr }
%class.MemRegion = type { ptr, i64 }
%"struct.SafepointMechanism::ThreadData" = type { i64, i64 }
%union.anon.1 = type { ptr }
%class.StackOverflow = type { i32, ptr, ptr, ptr, ptr, ptr, ptr }
%class.StackWatermarks = type { ptr }
%class.HandshakeState = type <{ ptr, %class.FilterQueue, %class.Monitor, ptr, i8, i8, i8, [5 x i8] }>
%class.FilterQueue = type { ptr }
%class.Monitor = type { %class.Mutex }
%class.Mutex = type { ptr, %class.PlatformMonitor, ptr }
%class.PlatformMonitor = type { %class.PlatformMutex, %union.pthread_cond_t }
%class.PlatformMutex = type { %union.pthread_mutex_t }
%union.pthread_mutex_t = type { %struct.__pthread_mutex_s }
%struct.__pthread_mutex_s = type { i32, i32, i32, i32, i32, i16, i16, %struct.__pthread_internal_list }
%struct.__pthread_internal_list = type { ptr, ptr }
%union.pthread_cond_t = type { %struct.__pthread_cond_s }
%struct.__pthread_cond_s = type { %union.__atomic_wide_counter, %union.__atomic_wide_counter, [2 x i32], [2 x i32], i32, i32, [2 x i32] }
%union.__atomic_wide_counter = type { i64 }
%class.Parker = type { %class.PlatformParker }
%class.PlatformParker = type { i32, i32, [1 x %union.pthread_mutex_t], [2 x %union.pthread_cond_t] }
%class.LockStack = type { i32, i64, [8 x ptr] }
%class.TimeStamp = type { i64 }

@_ZN6Thread12_thr_currentE = external thread_local global ptr, align 8
@_ZN15ciObjectFactory12_initializedE = external global i8, align 1

; Function Attrs: mustprogress nounwind uwtable
define linkonce_odr hidden noundef ptr @_ZN6Thread15current_or_nullEv() #1 comdat align 2 {
  %1 = call align 8 ptr @llvm.threadlocal.address.p0(ptr align 8 @_ZN6Thread12_thr_currentE)
  %2 = load ptr, ptr %1, align 8
  ret ptr %2
}

; Function Attrs: mustprogress nounwind uwtable
define linkonce_odr hidden noundef ptr @_ZN10JavaThread4castEP6Thread(ptr noundef %0) #1 comdat align 2 {
  %2 = alloca ptr, align 8
  store ptr %0, ptr %2, align 8
  %3 = load ptr, ptr %2, align 8
  ret ptr %3
}

; Function Attrs: mustprogress nounwind uwtable
define linkonce_odr hidden noundef ptr @_ZN6Thread7currentEv() #1 comdat align 2 {
  %1 = alloca ptr, align 8
  %2 = call noundef ptr @_ZN6Thread15current_or_nullEv()
  store ptr %2, ptr %1, align 8
  %3 = load ptr, ptr %1, align 8
  ret ptr %3
}

; Function Attrs: mustprogress nounwind uwtable
define linkonce_odr hidden noundef zeroext i1 @_ZNK7ciFlags9is_staticEv(ptr noundef nonnull align 4 dereferenceable(6) %0) #1 comdat align 2 {
  %2 = alloca ptr, align 8
  store ptr %0, ptr %2, align 8
  %3 = load ptr, ptr %2, align 8
  %4 = getelementptr inbounds %class.ciFlags, ptr %3, i32 0, i32 0
  %5 = load i32, ptr %4, align 4
  %6 = and i32 %5, 8
  %7 = icmp ne i32 %6, 0
  ret i1 %7
}

; Function Attrs: mustprogress nounwind uwtable
define linkonce_odr hidden i64 @_ZNK7ciField5flagsEv(ptr noundef nonnull align 8 dereferenceable(80) %0) #1 comdat align 2 {
  %2 = alloca %class.ciFlags, align 4
  %3 = alloca ptr, align 8
  store ptr %0, ptr %3, align 8
  %4 = load ptr, ptr %3, align 8
  %5 = getelementptr inbounds %class.ciField, ptr %4, i32 0, i32 0
  call void @llvm.memcpy.p0.p0.i64(ptr align 4 %2, ptr align 8 %5, i64 8, i1 false)
  %6 = load i64, ptr %2, align 4
  ret i64 %6
}

; Function Attrs: mustprogress nounwind uwtable
define linkonce_odr hidden noundef ptr @_ZN14CompilerThread4castEP6Thread(ptr noundef %0) #1 comdat align 2 {
  %2 = alloca ptr, align 8
  store ptr %0, ptr %2, align 8
  %3 = load ptr, ptr %2, align 8
  ret ptr %3
}

; Function Attrs: mustprogress nounwind uwtable
define linkonce_odr hidden noundef ptr @_ZN10JavaThread7currentEv() #1 comdat align 2 {
  %1 = call noundef ptr @_ZN6Thread7currentEv()
  %2 = call noundef ptr @_ZN10JavaThread4castEP6Thread(ptr noundef %1)
  ret ptr %2
}

; Function Attrs: mustprogress nounwind uwtable
define linkonce_odr hidden noundef zeroext i1 @_ZNK7ciField9is_staticEv(ptr noundef nonnull align 8 dereferenceable(80) %0) #1 comdat align 2 {
  %2 = alloca ptr, align 8
  %3 = alloca %class.ciFlags, align 4
  store ptr %0, ptr %2, align 8
  %4 = load ptr, ptr %2, align 8
  %5 = call i64 @_ZNK7ciField5flagsEv(ptr noundef nonnull align 8 dereferenceable(80) %4)
  store i64 %5, ptr %3, align 4
  %6 = call noundef zeroext i1 @_ZNK7ciFlags9is_staticEv(ptr noundef nonnull align 4 dereferenceable(6) %3)
  ret i1 %6
}

; Function Attrs: mustprogress nounwind uwtable
define linkonce_odr hidden noundef zeroext i1 @_Z17is_reference_type9BasicTypeb(i8 noundef zeroext %0, i1 noundef zeroext %1) #1 comdat {
  %3 = alloca i8, align 1
  %4 = alloca i8, align 1
  store i8 %0, ptr %3, align 1
  %5 = zext i1 %1 to i8
  store i8 %5, ptr %4, align 1
  %6 = load i8, ptr %3, align 1
  %7 = zext i8 %6 to i32
  %8 = icmp eq i32 %7, 12
  br i1 %8, label %22, label %9

9:                                                ; preds = %2
  %10 = load i8, ptr %3, align 1
  %11 = zext i8 %10 to i32
  %12 = icmp eq i32 %11, 13
  br i1 %12, label %22, label %13

13:                                               ; preds = %9
  %14 = load i8, ptr %4, align 1
  %15 = trunc i8 %14 to i1
  br i1 %15, label %16, label %20

16:                                               ; preds = %13
  %17 = load i8, ptr %3, align 1
  %18 = zext i8 %17 to i32
  %19 = icmp eq i32 %18, 16
  br label %20

20:                                               ; preds = %16, %13
  %21 = phi i1 [ false, %13 ], [ %19, %16 ]
  br label %22

22:                                               ; preds = %20, %9, %2
  %23 = phi i1 [ true, %9 ], [ true, %2 ], [ %21, %20 ]
  ret i1 %23
}

; Function Attrs: mustprogress nounwind uwtable
define linkonce_odr hidden noundef zeroext i8 @_ZNK6ciType10basic_typeEv(ptr noundef nonnull align 8 dereferenceable(25) %0) #1 comdat align 2 {
  %2 = alloca ptr, align 8
  store ptr %0, ptr %2, align 8
  %3 = load ptr, ptr %2, align 8
  %4 = getelementptr inbounds %class.ciType, ptr %3, i32 0, i32 1
  %5 = load i8, ptr %4, align 8
  ret i8 %5
}

; Function Attrs: mustprogress nounwind uwtable
define linkonce_odr hidden noundef ptr @_ZN14CompilerThread3envEv(ptr noundef nonnull align 8 dereferenceable(1880) %0) #1 comdat align 2 {
  %2 = alloca ptr, align 8
  store ptr %0, ptr %2, align 8
  %3 = load ptr, ptr %2, align 8
  %4 = getelementptr inbounds %class.CompilerThread, ptr %3, i32 0, i32 2
  %5 = load ptr, ptr %4, align 8
  ret ptr %5
}

; Function Attrs: mustprogress nounwind uwtable
define linkonce_odr hidden noundef ptr @_ZN14CompilerThread7currentEv() #1 comdat align 2 {
  %1 = call noundef ptr @_ZN10JavaThread7currentEv()
  %2 = call noundef ptr @_ZN14CompilerThread4castEP6Thread(ptr noundef %1)
  ret ptr %2
}

; Function Attrs: mustprogress nounwind uwtable
define linkonce_odr hidden noundef zeroext i1 @_ZN15ciObjectFactory14is_initializedEv() #1 comdat align 2 {
  %1 = load volatile i8, ptr @_ZN15ciObjectFactory12_initializedE, align 1
  %2 = trunc i8 %1 to i1
  ret i1 %2
}

; Function Attrs: mustprogress nounwind uwtable
define linkonce_odr hidden noundef zeroext i1 @_ZN15ciInstanceKlass9is_sharedEv(ptr noundef nonnull align 8 dereferenceable(144) %0) #1 comdat align 2 {
  %2 = alloca ptr, align 8
  store ptr %0, ptr %2, align 8
  %3 = load ptr, ptr %2, align 8
  %4 = getelementptr inbounds %class.ciInstanceKlass, ptr %3, i32 0, i32 4
  %5 = load i8, ptr %4, align 1
  %6 = trunc i8 %5 to i1
  ret i1 %6
}

; Function Attrs: mustprogress nounwind uwtable
define linkonce_odr hidden noundef ptr @_ZN10ciMetadata17as_instance_klassEv(ptr noundef nonnull align 8 dereferenceable(24) %0) #1 comdat align 2 {
  %2 = alloca ptr, align 8
  store ptr %0, ptr %2, align 8
  %3 = load ptr, ptr %2, align 8
  ret ptr %3
}

; Function Attrs: mustprogress nounwind uwtable
define linkonce_odr hidden noundef zeroext i1 @_ZN7ciField9is_sharedEv(ptr noundef nonnull align 8 dereferenceable(80) %0) #1 comdat align 2 {
  %2 = alloca ptr, align 8
  store ptr %0, ptr %2, align 8
  %3 = load ptr, ptr %2, align 8
  %4 = getelementptr inbounds %class.ciField, ptr %3, i32 0, i32 1
  %5 = load ptr, ptr %4, align 8
  %6 = call noundef zeroext i1 @_ZN15ciInstanceKlass9is_sharedEv(ptr noundef nonnull align 8 dereferenceable(144) %5)
  br i1 %6, label %7, label %10

7:                                                ; preds = %1
  %8 = call noundef zeroext i1 @_ZNK7ciField9is_staticEv(ptr noundef nonnull align 8 dereferenceable(80) %3)
  %9 = xor i1 %8, true
  br label %10

10:                                               ; preds = %7, %1
  %11 = phi i1 [ false, %1 ], [ %9, %7 ]
  ret i1 %11
}

; Function Attrs: mustprogress nounwind uwtable
define linkonce_odr hidden noundef zeroext i1 @_ZNK6ciType17is_primitive_typeEv(ptr noundef nonnull align 8 dereferenceable(25) %0) #1 comdat align 2 {
  %2 = alloca ptr, align 8
  store ptr %0, ptr %2, align 8
  %3 = load ptr, ptr %2, align 8
  %4 = call noundef zeroext i8 @_ZNK6ciType10basic_typeEv(ptr noundef nonnull align 8 dereferenceable(25) %3)
  %5 = call noundef zeroext i1 @_Z17is_reference_type9BasicTypeb(i8 noundef zeroext %4, i1 noundef zeroext false)
  %6 = xor i1 %5, true
  ret i1 %6
}

; Function Attrs: mustprogress nounwind uwtable
define linkonce_odr hidden void @_ZN18constantPoolHandleC2Ev(ptr noundef nonnull align 8 dereferenceable(16) %0) unnamed_addr #1 comdat align 2 {
  %2 = alloca ptr, align 8
  store ptr %0, ptr %2, align 8
  %3 = load ptr, ptr %2, align 8
  %4 = getelementptr inbounds %class.constantPoolHandle, ptr %3, i32 0, i32 0
  store ptr null, ptr %4, align 8
  %5 = getelementptr inbounds %class.constantPoolHandle, ptr %3, i32 0, i32 1
  store ptr null, ptr %5, align 8
  ret void
}

; Function Attrs: mustprogress nounwind uwtable
define linkonce_odr hidden noundef ptr @_ZN5ciEnv7currentEv() #1 comdat align 2 {
  %1 = call noundef ptr @_ZN14CompilerThread7currentEv()
  %2 = call noundef ptr @_ZN14CompilerThread3envEv(ptr noundef nonnull align 8 dereferenceable(1880) %1)
  ret ptr %2
}

; Function Attrs: mustprogress nounwind uwtable
define hidden noundef ptr @_ZN7ciField17compute_type_implEv(ptr noundef nonnull align 8 dereferenceable(80) %0) #1 align 2 {
  %2 = alloca ptr, align 8
  %3 = alloca ptr, align 8
  %4 = alloca ptr, align 8
  %5 = alloca %class.constantPoolHandle, align 8
  %6 = alloca i8, align 1
  store ptr %0, ptr %3, align 8
  %7 = load ptr, ptr %3, align 8
  %8 = call noundef ptr @_ZN5ciEnv7currentEv()
  %9 = getelementptr inbounds %class.ciField, ptr %7, i32 0, i32 1
  %10 = load ptr, ptr %9, align 8
  call void @_ZN18constantPoolHandleC2Ev(ptr noundef nonnull align 8 dereferenceable(16) %5)
  %11 = getelementptr inbounds %class.ciField, ptr %7, i32 0, i32 3
  %12 = load ptr, ptr %11, align 8
  %13 = call noundef ptr @_ZN5ciEnv22get_klass_by_name_implEP7ciKlassRK18constantPoolHandleP8ciSymbolb(ptr noundef nonnull align 8 dereferenceable(1265) %8, ptr noundef %10, ptr noundef nonnull align 8 dereferenceable(16) %5, ptr noundef %12, i1 noundef zeroext false)
  call void @_ZN18constantPoolHandleD1Ev(ptr noundef nonnull align 8 dereferenceable(16) %5) #8
  store ptr %13, ptr %4, align 8
  %14 = load ptr, ptr %4, align 8
  %15 = call noundef zeroext i1 @_ZNK6ciType17is_primitive_typeEv(ptr noundef nonnull align 8 dereferenceable(25) %14)
  br i1 %15, label %47, label %16

16:                                               ; preds = %1
  %17 = call noundef zeroext i1 @_ZN7ciField9is_sharedEv(ptr noundef nonnull align 8 dereferenceable(80) %7)
  br i1 %17, label %18, label %47

18:                                               ; preds = %16
  store i8 0, ptr %6, align 1
  %19 = load ptr, ptr %4, align 8
  %20 = load ptr, ptr %19, align 8
  %21 = getelementptr inbounds ptr, ptr %20, i64 13
  %22 = load ptr, ptr %21, align 8
  %23 = call noundef zeroext i1 %22(ptr noundef nonnull align 8 dereferenceable(24) %19)
  br i1 %23, label %24, label %25

24:                                               ; preds = %18
  store i8 1, ptr %6, align 1
  br label %41

25:                                               ; preds = %18
  %26 = load ptr, ptr %4, align 8
  %27 = load ptr, ptr %26, align 8
  %28 = getelementptr inbounds ptr, ptr %27, i64 10
  %29 = load ptr, ptr %28, align 8
  %30 = call noundef zeroext i1 %29(ptr noundef nonnull align 8 dereferenceable(24) %26)
  br i1 %30, label %31, label %36

31:                                               ; preds = %25
  %32 = load ptr, ptr %4, align 8
  %33 = call noundef ptr @_ZN10ciMetadata17as_instance_klassEv(ptr noundef nonnull align 8 dereferenceable(24) %32)
  %34 = call noundef zeroext i1 @_ZN15ciInstanceKlass9is_sharedEv(ptr noundef nonnull align 8 dereferenceable(144) %33)
  %35 = zext i1 %34 to i8
  store i8 %35, ptr %6, align 1
  br label %40

36:                                               ; preds = %25
  %37 = call noundef zeroext i1 @_ZN15ciObjectFactory14is_initializedEv()
  %38 = xor i1 %37, true
  %39 = zext i1 %38 to i8
  store i8 %39, ptr %6, align 1
  br label %40

40:                                               ; preds = %36, %31
  br label %41

41:                                               ; preds = %40, %24
  %42 = load i8, ptr %6, align 1
  %43 = trunc i8 %42 to i1
  br i1 %43, label %46, label %44

44:                                               ; preds = %41
  %45 = load ptr, ptr %4, align 8
  store ptr %45, ptr %2, align 8
  br label %51

46:                                               ; preds = %41
  br label %47

47:                                               ; preds = %46, %16, %1
  %48 = load ptr, ptr %4, align 8
  %49 = getelementptr inbounds %class.ciField, ptr %7, i32 0, i32 4
  store ptr %48, ptr %49, align 8
  %50 = load ptr, ptr %4, align 8
  store ptr %50, ptr %2, align 8
  br label %51

51:                                               ; preds = %47, %44
  %52 = load ptr, ptr %2, align 8
  ret ptr %52
}