; Function Attrs: mustprogress nounwind uwtable
define hidden noundef ptr @_ZN7ciField17compute_type_implEv(ptr nocapture noundef nonnull align 8 dereferenceable(80) %0) local_unnamed_addr #0 align 2 {
  %2 = alloca %class.constantPoolHandle, align 8
  %3 = tail call align 8 ptr @llvm.threadlocal.address.p0(ptr align 8 @_ZN6Thread12_thr_currentE)
  %4 = load ptr, ptr %3, align 8
  %5 = getelementptr inbounds i8, ptr %4, i64 1808
  %6 = load ptr, ptr %5, align 8
  %7 = getelementptr inbounds i8, ptr %0, i64 8
  %8 = load ptr, ptr %7, align 8
  call void @llvm.memset.p0.i64(ptr noundef nonnull align 8 dereferenceable(16) %2, i8 0, i64 16, i1 false)
  %9 = getelementptr inbounds i8, ptr %0, i64 24
  %10 = load ptr, ptr %9, align 8
  %11 = call noundef ptr @_ZN5ciEnv22get_klass_by_name_implEP7ciKlassRK18constantPoolHandleP8ciSymbolb(ptr noundef nonnull align 8 dereferenceable(1265) %6, ptr noundef %8, ptr noundef nonnull align 8 dereferenceable(16) %2, ptr noundef %10, i1 noundef zeroext false) #8
  call void @_ZN18constantPoolHandleD1Ev(ptr noundef nonnull align 8 dereferenceable(16) %2) #8
  %12 = getelementptr inbounds i8, ptr %11, i64 24
  %13 = load i8, ptr %12, align 8
  %14 = and i8 %13, -2
  %or.cond.i.i.not = icmp eq i8 %14, 12
  br i1 %or.cond.i.i.not, label %15, label %.critedge

15:                                               ; preds = %1
  %16 = load ptr, ptr %7, align 8
  %17 = getelementptr inbounds i8, ptr %16, i64 65
  %18 = load i8, ptr %17, align 1
  %19 = trunc i8 %18 to i1
  %.sroa.0.0.copyload.i.i.i = load i64, ptr %0, align 8
  %20 = and i64 %.sroa.0.0.copyload.i.i.i, 8
  %.not.i = icmp eq i64 %20, 0
  %21 = select i1 %19, i1 %.not.i, i1 false
  br i1 %21, label %22, label %.critedge

22:                                               ; preds = %15
  %23 = load ptr, ptr %11, align 8
  %24 = getelementptr inbounds i8, ptr %23, i64 104
  %25 = load ptr, ptr %24, align 8
  %26 = call noundef zeroext i1 %25(ptr noundef nonnull align 8 dereferenceable(24) %11) #8
  br i1 %26, label %.critedge, label %27

27:                                               ; preds = %22
  %28 = load ptr, ptr %11, align 8
  %29 = getelementptr inbounds i8, ptr %28, i64 80
  %30 = load ptr, ptr %29, align 8
  %31 = call noundef zeroext i1 %30(ptr noundef nonnull align 8 dereferenceable(24) %11) #8
  br i1 %31, label %32, label %36

32:                                               ; preds = %27
  %33 = getelementptr inbounds i8, ptr %11, i64 65
  %34 = load i8, ptr %33, align 1
  %35 = trunc i8 %34 to i1
  br i1 %35, label %.critedge, label %40

36:                                               ; preds = %27
  %37 = load volatile i8, ptr @_ZN15ciObjectFactory12_initializedE, align 1
  %38 = trunc i8 %37 to i1
  br i1 %38, label %40, label %.critedge

.critedge:                                        ; preds = %32, %22, %36, %15, %1
  %39 = getelementptr inbounds i8, ptr %0, i64 32
  store ptr %11, ptr %39, align 8
  br label %40

40:                                               ; preds = %32, %36, %.critedge
  ret ptr %11
}